Certificate:
    Data:
        Version: 3 (0x2)
        Serial Number:
            a4:5e:da:4e:51:14:36:eb:22:de:39:50:d1:05:f2:a3
        Signature Algorithm: sha256WithRSAEncryption
        Issuer: CN=Easy-RSA CA
        Validity
            Not Before: Jan 19 19:06:57 2022 GMT
            Not After : Apr 23 19:06:57 2024 GMT
        Subject: CN=node1
        Subject Public Key Info:
            Public Key Algorithm: rsaEncryption
                RSA Public-Key: (2048 bit)
                Modulus:
                    00:a1:58:8c:9a:86:20:36:5d:c1:f2:58:fa:e4:30:
                    e0:d8:de:ae:fe:f6:88:ee:a4:99:2d:c6:0a:85:a9:
                    c8:e4:7b:eb:69:9a:28:07:f3:4b:c3:1b:6f:13:6b:
                    80:7d:f4:3b:0f:1e:77:74:65:67:59:18:f2:8b:4f:
                    df:59:25:43:e3:f9:e5:09:e3:41:e1:c3:e3:96:ec:
                    5f:d2:8e:d3:28:9b:1e:ce:c6:50:54:1e:1a:61:b6:
                    a6:22:14:46:dd:87:5c:9a:76:7b:6d:f5:07:72:43:
                    17:4f:65:5e:d7:a0:a7:50:77:49:9c:18:fa:48:8b:
                    6d:23:49:4f:25:d8:b9:93:af:44:1f:7f:51:7e:0a:
                    47:5c:22:f0:9b:e8:69:b6:37:7a:08:4e:b3:cb:11:
                    0c:ba:4e:d4:7b:81:69:15:74:5d:ce:73:0a:4f:2d:
                    7d:3f:12:41:e2:55:1d:34:fa:54:c1:5f:70:ea:ff:
                    09:6d:9b:b1:21:25:7d:91:7d:50:7d:c7:b0:cc:cd:
                    4b:dd:0c:97:07:16:c7:20:df:a0:f8:18:a8:24:2c:
                    0d:7d:95:bf:cd:67:d3:6d:6e:05:78:83:5b:59:0a:
                    a7:7d:3f:f5:c7:57:d8:5b:88:b8:40:00:43:25:8f:
                    00:d6:c4:8b:6e:6d:7f:b3:99:8f:5e:61:c5:66:15:
                    92:2f
                Exponent: 65537 (0x10001)
        X509v3 extensions:
            X509v3 Basic Constraints: 
                CA:FALSE
            X509v3 Subject Key Identifier: 
                D7:40:C1:9E:90:7C:5C:EC:07:40:14:81:70:7B:34:C4:F9:AA:10:58
            X509v3 Authority Key Identifier: 
                keyid:D6:AF:3D:2C:8D:C0:1E:F9:06:24:CD:01:B7:F9:E0:46:75:B9:CC:1B
                DirName:/CN=Easy-RSA CA
                serial:30:DC:26:94:76:1F:1C:FE:AB:D2:06:C1:34:B3:14:6B:1F:35:14:8A

            X509v3 Extended Key Usage: 
                TLS Web Client Authentication
            X509v3 Key Usage: 
                Digital Signature
    Signature Algorithm: sha256WithRSAEncryption
         74:13:41:88:8a:85:7b:4f:60:a3:83:57:5b:72:95:92:4e:b1:
         0d:a4:cc:fe:85:2b:d8:2c:13:6a:88:3f:77:4b:ba:b0:64:0a:
         08:4a:5e:0e:93:84:a9:06:02:cf:3b:96:94:83:14:c6:1c:aa:
         20:ba:9c:98:ba:42:e8:a9:9d:b4:2d:2f:4c:1d:cc:a4:a3:df:
         f6:41:e7:36:b1:71:97:dd:47:d3:bd:a1:00:3f:35:13:20:cd:
         13:35:2f:ca:7b:81:b6:2d:ed:d4:c6:fa:49:7c:99:12:d7:c9:
         fd:70:4d:5c:ee:ee:9a:5e:86:0b:74:ed:e9:ca:77:65:17:f3:
         77:18:4f:a2:70:a2:38:54:22:4b:15:74:4e:dd:df:dd:f5:67:
         c2:a8:43:6e:af:f4:d9:a7:ca:51:86:53:18:bb:86:ec:12:1f:
         4d:59:60:85:2b:7e:c7:de:81:f5:0a:f6:7b:0d:73:57:0f:d3:
         ba:f5:40:09:45:bf:86:40:bd:9e:3b:4c:45:e8:0b:5d:2f:0f:
         c1:2c:22:2d:ad:50:12:75:a7:b6:44:a7:22:50:b9:3e:5e:7c:
         b6:df:3c:c4:ee:96:9b:df:ea:03:c1:b0:09:55:69:a1:1f:e5:
         03:c1:52:60:ed:4f:57:70:b1:f2:f6:a1:8f:4f:6e:3c:4a:56:
         aa:c8:f6:32
-----BEGIN CERTIFICATE-----
MIIDVDCCAjygAwIBAgIRAKRe2k5RFDbrIt45UNEF8qMwDQYJKoZIhvcNAQELBQAw
FjEUMBIGA1UEAwwLRWFzeS1SU0EgQ0EwHhcNMjIwMTE5MTkwNjU3WhcNMjQwNDIz
MTkwNjU3WjAQMQ4wDAYDVQQDDAVub2RlMTCCASIwDQYJKoZIhvcNAQEBBQADggEP
ADCCAQoCggEBAKFYjJqGIDZdwfJY+uQw4Njerv72iO6kmS3GCoWpyOR762maKAfz
S8MbbxNrgH30Ow8ed3RlZ1kY8otP31klQ+P55QnjQeHD45bsX9KO0yibHs7GUFQe
GmG2piIURt2HXJp2e231B3JDF09lXtegp1B3SZwY+kiLbSNJTyXYuZOvRB9/UX4K
R1wi8JvoabY3eghOs8sRDLpO1HuBaRV0Xc5zCk8tfT8SQeJVHTT6VMFfcOr/CW2b
sSElfZF9UH3HsMzNS90MlwcWxyDfoPgYqCQsDX2Vv81n021uBXiDW1kKp30/9cdX
2FuIuEAAQyWPANbEi25tf7OZj15hxWYVki8CAwEAAaOBojCBnzAJBgNVHRMEAjAA
MB0GA1UdDgQWBBTXQMGekHxc7AdAFIFwezTE+aoQWDBRBgNVHSMESjBIgBTWrz0s
jcAe+QYkzQG3+eBGdbnMG6EapBgwFjEUMBIGA1UEAwwLRWFzeS1SU0EgQ0GCFDDc
JpR2Hxz+q9IGwTSzFGsfNRSKMBMGA1UdJQQMMAoGCCsGAQUFBwMCMAsGA1UdDwQE
AwIHgDANBgkqhkiG9w0BAQsFAAOCAQEAdBNBiIqFe09go4NXW3KVkk6xDaTM/oUr
2CwTaog/d0u6sGQKCEpeDpOEqQYCzzuWlIMUxhyqILqcmLpC6KmdtC0vTB3MpKPf
9kHnNrFxl91H072hAD81EyDNEzUvynuBti3t1Mb6SXyZEtfJ/XBNXO7uml6GC3Tt
6cp3ZRfzdxhPonCiOFQiSxV0Tt3f3fVnwqhDbq/02afKUYZTGLuG7BIfTVlghSt+
x96B9Qr2ew1zVw/TuvVACUW/hkC9njtMRegLXS8PwSwiLa1QEnWntkSnIlC5Pl58
tt88xO6Wm9/qA8GwCVVpoR/lA8FSYO1PV3Cx8vahj09uPEpWqsj2Mg==
-----END CERTIFICATE-----
